target datalayout = "e-m:e-p270:32:32-p271:32:32-p272:64:64-i64:64-i128:128-f80:128-n8:16:32:64-S128"
target triple = "x86_64-pc-linux-gnu"

@.str = private unnamed_addr constant [43 x i8] c"value \22%s\22 is out of range for type bigint\00", align 1
@.str.1 = private unnamed_addr constant [43 x i8] c"invalid input syntax for type bigint: \22%s\22\00", align 1

; Function Attrs: inlinehint nounwind uwtable
define internal zeroext i1 @pg_sub_s64_overflow(i64 noundef %0, i64 noundef %1, ptr noundef %2) #4 {
  %4 = alloca i64, align 8
  %5 = alloca i64, align 8
  %6 = alloca ptr, align 8
  store i64 %0, ptr %4, align 8
  store i64 %1, ptr %5, align 8
  store ptr %2, ptr %6, align 8
  %7 = load i64, ptr %4, align 8
  %8 = load i64, ptr %5, align 8
  %9 = load ptr, ptr %6, align 8
  %10 = call { i64, i1 } @llvm.ssub.with.overflow.i64(i64 %7, i64 %8)
  %11 = extractvalue { i64, i1 } %10, 1
  %12 = extractvalue { i64, i1 } %10, 0
  store i64 %12, ptr %9, align 8
  ret i1 %11
}

; Function Attrs: inlinehint nounwind uwtable
define internal zeroext i1 @pg_mul_s64_overflow(i64 noundef %0, i64 noundef %1, ptr noundef %2) #4 {
  %4 = alloca i64, align 8
  %5 = alloca i64, align 8
  %6 = alloca ptr, align 8
  store i64 %0, ptr %4, align 8
  store i64 %1, ptr %5, align 8
  store ptr %2, ptr %6, align 8
  %7 = load i64, ptr %4, align 8
  %8 = load i64, ptr %5, align 8
  %9 = load ptr, ptr %6, align 8
  %10 = call { i64, i1 } @llvm.smul.with.overflow.i64(i64 %7, i64 %8)
  %11 = extractvalue { i64, i1 } %10, 1
  %12 = extractvalue { i64, i1 } %10, 0
  store i64 %12, ptr %9, align 8
  ret i1 %11
}

; Function Attrs: nounwind uwtable
define dso_local zeroext i1 @strtoint64(ptr noundef %0, i1 noundef zeroext %1, ptr noundef %2) #0 {
  %4 = alloca i1, align 1
  %5 = alloca ptr, align 8
  %6 = alloca i8, align 1
  %7 = alloca ptr, align 8
  %8 = alloca ptr, align 8
  %9 = alloca i64, align 8
  %10 = alloca i8, align 1
  %11 = alloca i8, align 1
  %12 = alloca i32, align 4
  store ptr %0, ptr %5, align 8
  %13 = zext i1 %1 to i8
  store i8 %13, ptr %6, align 1
  store ptr %2, ptr %7, align 8
  call void @llvm.lifetime.start.p0(i64 8, ptr %8) #14
  %14 = load ptr, ptr %5, align 8
  store ptr %14, ptr %8, align 8
  call void @llvm.lifetime.start.p0(i64 8, ptr %9) #14
  store i64 0, ptr %9, align 8
  call void @llvm.lifetime.start.p0(i64 1, ptr %10) #14
  store i8 0, ptr %10, align 1
  br label %15

15:                                               ; preds = %34, %3
  %16 = load ptr, ptr %8, align 8
  %17 = load i8, ptr %16, align 1
  %18 = sext i8 %17 to i32
  %19 = icmp ne i32 %18, 0
  br i1 %19, label %20, label %32

20:                                               ; preds = %15
  %21 = call ptr @__ctype_b_loc() #15
  %22 = load ptr, ptr %21, align 8
  %23 = load ptr, ptr %8, align 8
  %24 = load i8, ptr %23, align 1
  %25 = zext i8 %24 to i32
  %26 = sext i32 %25 to i64
  %27 = getelementptr inbounds i16, ptr %22, i64 %26
  %28 = load i16, ptr %27, align 2
  %29 = zext i16 %28 to i32
  %30 = and i32 %29, 8192
  %31 = icmp ne i32 %30, 0
  br label %32

32:                                               ; preds = %20, %15
  %33 = phi i1 [ false, %15 ], [ %31, %20 ]
  br i1 %33, label %34, label %37

34:                                               ; preds = %32
  %35 = load ptr, ptr %8, align 8
  %36 = getelementptr inbounds nuw i8, ptr %35, i32 1
  store ptr %36, ptr %8, align 8
  br label %15, !llvm.loop !4

37:                                               ; preds = %32
  %38 = load ptr, ptr %8, align 8
  %39 = load i8, ptr %38, align 1
  %40 = sext i8 %39 to i32
  %41 = icmp eq i32 %40, 45
  br i1 %41, label %42, label %45

42:                                               ; preds = %37
  %43 = load ptr, ptr %8, align 8
  %44 = getelementptr inbounds nuw i8, ptr %43, i32 1
  store ptr %44, ptr %8, align 8
  store i8 1, ptr %10, align 1
  br label %54

45:                                               ; preds = %37
  %46 = load ptr, ptr %8, align 8
  %47 = load i8, ptr %46, align 1
  %48 = sext i8 %47 to i32
  %49 = icmp eq i32 %48, 43
  br i1 %49, label %50, label %53

50:                                               ; preds = %45
  %51 = load ptr, ptr %8, align 8
  %52 = getelementptr inbounds nuw i8, ptr %51, i32 1
  store ptr %52, ptr %8, align 8
  br label %53

53:                                               ; preds = %50, %45
  br label %54

54:                                               ; preds = %53, %42
  %55 = call ptr @__ctype_b_loc() #15
  %56 = load ptr, ptr %55, align 8
  %57 = load ptr, ptr %8, align 8
  %58 = load i8, ptr %57, align 1
  %59 = zext i8 %58 to i32
  %60 = sext i32 %59 to i64
  %61 = getelementptr inbounds i16, ptr %56, i64 %60
  %62 = load i16, ptr %61, align 2
  %63 = zext i16 %62 to i32
  %64 = and i32 %63, 2048
  %65 = icmp ne i32 %64, 0
  %66 = xor i1 %65, true
  %67 = zext i1 %66 to i32
  %68 = icmp ne i32 %67, 0
  %69 = zext i1 %68 to i32
  %70 = sext i32 %69 to i64
  %71 = call i64 @llvm.expect.i64(i64 %70, i64 0)
  %72 = icmp ne i64 %71, 0
  br i1 %72, label %73, label %74

73:                                               ; preds = %54
  br label %185

74:                                               ; preds = %54
  br label %75

75:                                               ; preds = %124, %74
  %76 = load ptr, ptr %8, align 8
  %77 = load i8, ptr %76, align 1
  %78 = sext i8 %77 to i32
  %79 = icmp ne i32 %78, 0
  br i1 %79, label %80, label %92

80:                                               ; preds = %75
  %81 = call ptr @__ctype_b_loc() #15
  %82 = load ptr, ptr %81, align 8
  %83 = load ptr, ptr %8, align 8
  %84 = load i8, ptr %83, align 1
  %85 = zext i8 %84 to i32
  %86 = sext i32 %85 to i64
  %87 = getelementptr inbounds i16, ptr %82, i64 %86
  %88 = load i16, ptr %87, align 2
  %89 = zext i16 %88 to i32
  %90 = and i32 %89, 2048
  %91 = icmp ne i32 %90, 0
  br label %92

92:                                               ; preds = %80, %75
  %93 = phi i1 [ false, %75 ], [ %91, %80 ]
  br i1 %93, label %94, label %125

94:                                               ; preds = %92
  call void @llvm.lifetime.start.p0(i64 1, ptr %11) #14
  %95 = load ptr, ptr %8, align 8
  %96 = getelementptr inbounds nuw i8, ptr %95, i32 1
  store ptr %96, ptr %8, align 8
  %97 = load i8, ptr %95, align 1
  %98 = sext i8 %97 to i32
  %99 = sub i32 %98, 48
  %100 = trunc i32 %99 to i8
  store i8 %100, ptr %11, align 1
  %101 = load i64, ptr %9, align 8
  %102 = call zeroext i1 @pg_mul_s64_overflow(i64 noundef %101, i64 noundef 10, ptr noundef %9)
  %103 = zext i1 %102 to i32
  %104 = icmp ne i32 %103, 0
  %105 = zext i1 %104 to i32
  %106 = sext i32 %105 to i64
  %107 = call i64 @llvm.expect.i64(i64 %106, i64 0)
  %108 = icmp ne i64 %107, 0
  br i1 %108, label %120, label %109

109:                                              ; preds = %94
  %110 = load i64, ptr %9, align 8
  %111 = load i8, ptr %11, align 1
  %112 = sext i8 %111 to i64
  %113 = call zeroext i1 @pg_sub_s64_overflow(i64 noundef %110, i64 noundef %112, ptr noundef %9)
  %114 = zext i1 %113 to i32
  %115 = icmp ne i32 %114, 0
  %116 = zext i1 %115 to i32
  %117 = sext i32 %116 to i64
  %118 = call i64 @llvm.expect.i64(i64 %117, i64 0)
  %119 = icmp ne i64 %118, 0
  br i1 %119, label %120, label %121

120:                                              ; preds = %109, %94
  store i32 7, ptr %12, align 4
  br label %122

121:                                              ; preds = %109
  store i32 0, ptr %12, align 4
  br label %122

122:                                              ; preds = %120, %121
  call void @llvm.lifetime.end.p0(i64 1, ptr %11) #14
  %123 = load i32, ptr %12, align 4
  switch i32 %123, label %191 [
    i32 0, label %124
    i32 7, label %179
  ]

124:                                              ; preds = %122
  br label %75, !llvm.loop !6

125:                                              ; preds = %92
  br label %126

126:                                              ; preds = %145, %125
  %127 = load ptr, ptr %8, align 8
  %128 = load i8, ptr %127, align 1
  %129 = sext i8 %128 to i32
  %130 = icmp ne i32 %129, 0
  br i1 %130, label %131, label %143

131:                                              ; preds = %126
  %132 = call ptr @__ctype_b_loc() #15
  %133 = load ptr, ptr %132, align 8
  %134 = load ptr, ptr %8, align 8
  %135 = load i8, ptr %134, align 1
  %136 = zext i8 %135 to i32
  %137 = sext i32 %136 to i64
  %138 = getelementptr inbounds i16, ptr %133, i64 %137
  %139 = load i16, ptr %138, align 2
  %140 = zext i16 %139 to i32
  %141 = and i32 %140, 8192
  %142 = icmp ne i32 %141, 0
  br label %143

143:                                              ; preds = %131, %126
  %144 = phi i1 [ false, %126 ], [ %142, %131 ]
  br i1 %144, label %145, label %148

145:                                              ; preds = %143
  %146 = load ptr, ptr %8, align 8
  %147 = getelementptr inbounds nuw i8, ptr %146, i32 1
  store ptr %147, ptr %8, align 8
  br label %126, !llvm.loop !7

148:                                              ; preds = %143
  %149 = load ptr, ptr %8, align 8
  %150 = load i8, ptr %149, align 1
  %151 = sext i8 %150 to i32
  %152 = icmp ne i32 %151, 0
  %153 = zext i1 %152 to i32
  %154 = icmp ne i32 %153, 0
  %155 = zext i1 %154 to i32
  %156 = sext i32 %155 to i64
  %157 = call i64 @llvm.expect.i64(i64 %156, i64 0)
  %158 = icmp ne i64 %157, 0
  br i1 %158, label %159, label %160

159:                                              ; preds = %148
  br label %185

160:                                              ; preds = %148
  %161 = load i8, ptr %10, align 1, !range !8, !noundef !9
  %162 = trunc i8 %161 to i1
  br i1 %162, label %176, label %163

163:                                              ; preds = %160
  %164 = load i64, ptr %9, align 8
  %165 = icmp eq i64 %164, -9223372036854775808
  %166 = zext i1 %165 to i32
  %167 = icmp ne i32 %166, 0
  %168 = zext i1 %167 to i32
  %169 = sext i32 %168 to i64
  %170 = call i64 @llvm.expect.i64(i64 %169, i64 0)
  %171 = icmp ne i64 %170, 0
  br i1 %171, label %172, label %173

172:                                              ; preds = %163
  br label %179

173:                                              ; preds = %163
  %174 = load i64, ptr %9, align 8
  %175 = sub i64 0, %174
  store i64 %175, ptr %9, align 8
  br label %176

176:                                              ; preds = %173, %160
  %177 = load i64, ptr %9, align 8
  %178 = load ptr, ptr %7, align 8
  store i64 %177, ptr %178, align 8
  store i1 true, ptr %4, align 1
  store i32 1, ptr %12, align 4
  br label %191

179:                                              ; preds = %122, %172
  %180 = load i8, ptr %6, align 1, !range !8, !noundef !9
  %181 = trunc i8 %180 to i1
  br i1 %181, label %184, label %182

182:                                              ; preds = %179
  %183 = load ptr, ptr %5, align 8
  call void (i32, i32, ptr, ...) @pg_log_generic(i32 noundef 4, i32 noundef 0, ptr noundef @.str, ptr noundef %183)
  br label %184

184:                                              ; preds = %182, %179
  store i1 false, ptr %4, align 1
  store i32 1, ptr %12, align 4
  br label %191

185:                                              ; preds = %159, %73
  %186 = load i8, ptr %6, align 1, !range !8, !noundef !9
  %187 = trunc i8 %186 to i1
  br i1 %187, label %190, label %188

188:                                              ; preds = %185
  %189 = load ptr, ptr %5, align 8
  call void (i32, i32, ptr, ...) @pg_log_generic(i32 noundef 4, i32 noundef 0, ptr noundef @.str.1, ptr noundef %189)
  br label %190

190:                                              ; preds = %188, %185
  store i1 false, ptr %4, align 1
  store i32 1, ptr %12, align 4
  br label %191

191:                                              ; preds = %190, %184, %176, %122
  call void @llvm.lifetime.end.p0(i64 1, ptr %10) #14
  call void @llvm.lifetime.end.p0(i64 8, ptr %9) #14
  call void @llvm.lifetime.end.p0(i64 8, ptr %8) #14
  %192 = load i1, ptr %4, align 1
  ret i1 %192
}