; Function Attrs: nounwind uwtable
define dso_local noundef zeroext i1 @strtoint64(ptr noundef %0, i1 noundef zeroext %1, ptr noundef writeonly captures(none) %2) local_unnamed_addr #0 {
  %4 = load i8, ptr %0, align 1
  %.not52 = icmp eq i8 %4, 0
  %.pre = tail call ptr @__ctype_b_loc() #24
  br i1 %.not52, label %.critedge, label %.lr.ph

.lr.ph:                                           ; preds = %3
  %5 = load ptr, ptr %.pre, align 8
  br label %6

6:                                                ; preds = %.lr.ph, %12
  %7 = phi i8 [ %4, %.lr.ph ], [ %14, %12 ]
  %.03053 = phi ptr [ %0, %.lr.ph ], [ %13, %12 ]
  %8 = zext i8 %7 to i64
  %9 = getelementptr inbounds nuw i16, ptr %5, i64 %8
  %10 = load i16, ptr %9, align 2
  %11 = and i16 %10, 8192
  %.not34 = icmp eq i16 %11, 0
  br i1 %.not34, label %.critedge, label %12

12:                                               ; preds = %6
  %13 = getelementptr inbounds nuw i8, ptr %.03053, i64 1
  %14 = load i8, ptr %13, align 1
  %.not = icmp eq i8 %14, 0
  br i1 %.not, label %.critedge, label %6, !llvm.loop !4

.critedge:                                        ; preds = %6, %12, %3
  %.030.lcssa = phi ptr [ %0, %3 ], [ %13, %12 ], [ %.03053, %6 ]
  %.lcssa = phi i8 [ 0, %3 ], [ 0, %12 ], [ %7, %6 ]
  %15 = icmp eq i8 %.lcssa, 45
  %16 = icmp eq i8 %.lcssa, 43
  %17 = or i1 %15, %16
  %.1.idx = zext i1 %17 to i64
  %.1 = getelementptr inbounds nuw i8, ptr %.030.lcssa, i64 %.1.idx
  %18 = load ptr, ptr %.pre, align 8
  %19 = load i8, ptr %.1, align 1
  %20 = zext i8 %19 to i64
  %21 = getelementptr inbounds nuw i16, ptr %18, i64 %20
  %22 = load i16, ptr %21, align 2
  %23 = and i16 %22, 2048
  %.not35 = icmp eq i16 %23, 0
  br i1 %.not35, label %.critedge4, label %.preheader, !prof !6

.preheader:                                       ; preds = %.critedge, %33
  %.045 = phi i64 [ %40, %33 ], [ 0, %.critedge ]
  %.2 = phi ptr [ %35, %33 ], [ %.1, %.critedge ]
  %24 = load i8, ptr %.2, align 1
  %.not36 = icmp eq i8 %24, 0
  br i1 %.not36, label %._crit_edge, label %25

25:                                               ; preds = %.preheader
  %26 = zext i8 %24 to i64
  %27 = getelementptr inbounds nuw i16, ptr %18, i64 %26
  %28 = load i16, ptr %27, align 2
  %29 = and i16 %28, 2048
  %.not37 = icmp eq i16 %29, 0
  br i1 %.not37, label %.lr.ph60, label %30

30:                                               ; preds = %25
  %31 = tail call { i64, i1 } @llvm.smul.with.overflow.i64(i64 %.045, i64 10)
  %32 = extractvalue { i64, i1 } %31, 1
  br i1 %32, label %.thread, label %33, !prof !6

33:                                               ; preds = %30
  %34 = extractvalue { i64, i1 } %31, 0
  %35 = getelementptr inbounds nuw i8, ptr %.2, i64 1
  %36 = add i8 %24, -48
  %37 = sext i8 %36 to i64
  %38 = tail call { i64, i1 } @llvm.ssub.with.overflow.i64(i64 %34, i64 %37)
  %39 = extractvalue { i64, i1 } %38, 1
  %40 = extractvalue { i64, i1 } %38, 0
  br i1 %39, label %.thread, label %.preheader, !prof !6

41:                                               ; preds = %.lr.ph60
  %42 = getelementptr inbounds nuw i8, ptr %.359, i64 1
  %43 = load i8, ptr %42, align 1
  %.not38 = icmp eq i8 %43, 0
  br i1 %.not38, label %._crit_edge, label %.lr.ph60, !llvm.loop !7

.lr.ph60:                                         ; preds = %25, %41
  %44 = phi i8 [ %43, %41 ], [ %24, %25 ]
  %.359 = phi ptr [ %42, %41 ], [ %.2, %25 ]
  %45 = zext i8 %44 to i64
  %46 = getelementptr inbounds nuw i16, ptr %18, i64 %45
  %47 = load i16, ptr %46, align 2
  %48 = and i16 %47, 8192
  %.not39 = icmp eq i16 %48, 0
  br i1 %.not39, label %.critedge4, label %41

._crit_edge:                                      ; preds = %.preheader, %41
  br i1 %15, label %53, label %49

49:                                               ; preds = %._crit_edge
  %50 = icmp eq i64 %.045, -9223372036854775808
  br i1 %50, label %.thread, label %51, !prof !6

51:                                               ; preds = %49
  %52 = sub nsw i64 0, %.045
  br label %53

53:                                               ; preds = %51, %._crit_edge
  %.247 = phi i64 [ %.045, %._crit_edge ], [ %52, %51 ]
  store i64 %.247, ptr %2, align 8
  br label %56

.thread:                                          ; preds = %33, %30, %49
  br i1 %1, label %56, label %54

54:                                               ; preds = %.thread
  tail call void (i32, i32, ptr, ...) @pg_log_generic(i32 noundef 4, i32 noundef 0, ptr noundef nonnull @.str, ptr noundef nonnull %0) #25
  br label %56

.critedge4:                                       ; preds = %.lr.ph60, %.critedge
  br i1 %1, label %56, label %55

55:                                               ; preds = %.critedge4
  tail call void (i32, i32, ptr, ...) @pg_log_generic(i32 noundef 4, i32 noundef 0, ptr noundef nonnull @.str.1, ptr noundef nonnull %0) #25
  br label %56

56:                                               ; preds = %.critedge4, %55, %.thread, %54, %53
  %.028 = phi i1 [ true, %53 ], [ false, %54 ], [ false, %.thread ], [ false, %55 ], [ false, %.critedge4 ]
  ret i1 %.028
}